; Function Attrs: mustprogress nofree nounwind willreturn memory(readwrite, inaccessiblemem: write) uwtable
define hidden noundef zeroext i1 @_ZN2cv6detail8tracking15online_boosting25WeakClassifierHaarFeature6updateEfi(ptr noundef nonnull readonly align 8 captures(none) dereferenceable(24) %0, float noundef %1, i32 noundef %2) local_unnamed_addr #14 align 2 {
  %4 = getelementptr inbounds nuw i8, ptr %0, i64 16
  %5 = load ptr, ptr %4, align 8, !tbaa !83
  tail call void @_ZN2cv6detail8tracking15online_boosting19ClassifierThreshold6updateEfi(ptr noundef nonnull align 8 dereferenceable(32) %5, float noundef %1, i32 noundef %2)
  %6 = load ptr, ptr %4, align 8, !tbaa !83
  %7 = getelementptr inbounds nuw i8, ptr %6, i64 28
  %8 = load i32, ptr %7, align 4, !tbaa !86
  %9 = sitofp i32 %8 to float
  %10 = getelementptr inbounds nuw i8, ptr %6, i64 24
  %11 = load float, ptr %10, align 8, !tbaa !89
  %12 = fsub float %1, %11
  %13 = fmul float %12, %9
  %14 = fcmp ogt float %13, 0.000000e+00
  %15 = select i1 %14, i32 1, i32 -1
  %16 = icmp ne i32 %15, %2
  ret i1 %16
}